target datalayout = "e-m:e-p270:32:32-p271:32:32-p272:64:64-i64:64-i128:128-f80:128-n8:16:32:64-S128"
target triple = "x86_64-pc-linux-gnu"

@proto_register_riemann.ett = internal global [5 x ptr] [ptr @ett_riemann, ptr @ett_query, ptr @ett_event, ptr @ett_attribute, ptr @ett_state], align 16
@.str.54 = private unnamed_addr constant [8 x i8] c"Riemann\00", align 1
@.str.55 = private unnamed_addr constant [8 x i8] c"riemann\00", align 1
@proto_riemann = internal global i32 0, align 4
@.str.56 = private unnamed_addr constant [12 x i8] c"riemann.udp\00", align 1
@riemann_udp_handle = internal global ptr null, align 8
@.str.57 = private unnamed_addr constant [12 x i8] c"riemann.tcp\00", align 1
@riemann_tcp_handle = internal global ptr null, align 8

; Function Attrs: null_pointer_is_valid sspstrong uwtable
define hidden void @proto_register_riemann() #0 {
  %1 = alloca ptr, align 8
  call void @llvm.lifetime.start.p0(i64 8, ptr %1) #3
  %2 = call i32 @proto_register_protocol(ptr noundef @.str.54, ptr noundef @.str.54, ptr noundef @.str.55)
  store i32 %2, ptr @proto_riemann, align 4
  %3 = load i32, ptr @proto_riemann, align 4
  %4 = call ptr @expert_register_protocol(i32 noundef %3)
  store ptr %4, ptr %1, align 8
  %5 = load ptr, ptr %1, align 8
  call void @expert_register_field_array(ptr noundef %5, ptr noundef @proto_register_riemann.ei, i32 noundef 3)
  %6 = load i32, ptr @proto_riemann, align 4
  call void @proto_register_field_array(i32 noundef %6, ptr noundef @proto_register_riemann.hf, i32 noundef 28)
  call void @proto_register_subtree_array(ptr noundef @proto_register_riemann.ett, i32 noundef 5)
  %7 = load i32, ptr @proto_riemann, align 4
  %8 = call ptr @register_dissector(ptr noundef @.str.56, ptr noundef @dissect_riemann_udp, i32 noundef %7)
  store ptr %8, ptr @riemann_udp_handle, align 8
  %9 = load i32, ptr @proto_riemann, align 4
  %10 = call ptr @register_dissector(ptr noundef @.str.57, ptr noundef @dissect_riemann_tcp, i32 noundef %9)
  store ptr %10, ptr @riemann_tcp_handle, align 8
  call void @llvm.lifetime.end.p0(i64 8, ptr %1) #3
  ret void
}