; Function Attrs: null_pointer_is_valid sspstrong uwtable
define hidden void @proto_register_riemann() local_unnamed_addr #0 {
  %1 = tail call i32 @proto_register_protocol(ptr noundef nonnull @.str.54, ptr noundef nonnull @.str.54, ptr noundef nonnull @.str.55)
  store i32 %1, ptr @proto_riemann, align 4
  %2 = tail call ptr @expert_register_protocol(i32 noundef %1)
  tail call void @expert_register_field_array(ptr noundef %2, ptr noundef nonnull @proto_register_riemann.ei, i32 noundef 3)
  %3 = load i32, ptr @proto_riemann, align 4
  tail call void @proto_register_field_array(i32 noundef %3, ptr noundef nonnull @proto_register_riemann.hf, i32 noundef 28)
  tail call void @proto_register_subtree_array(ptr noundef nonnull @proto_register_riemann.ett, i32 noundef 5)
  %4 = load i32, ptr @proto_riemann, align 4
  %5 = tail call ptr @register_dissector(ptr noundef nonnull @.str.56, ptr noundef nonnull @dissect_riemann_udp, i32 noundef %4)
  store ptr %5, ptr @riemann_udp_handle, align 8
  %6 = load i32, ptr @proto_riemann, align 4
  %7 = tail call ptr @register_dissector(ptr noundef nonnull @.str.57, ptr noundef nonnull @dissect_riemann_tcp, i32 noundef %6)
  store ptr %7, ptr @riemann_tcp_handle, align 8
  ret void
}